target datalayout = "e-m:e-p270:32:32-p271:32:32-p272:64:64-i64:64-i128:128-f80:128-n8:16:32:64-S128"
target triple = "x86_64-pc-linux-gnu"

%struct.tm = type { i32, i32, i32, i32, i32, i32, i32, i32, i32, i64, ptr }

; Function Attrs: nounwind sspstrong uwtable
define internal i32 @isleap(i64 noundef %0) #0 {
  %2 = alloca i64, align 8
  store i64 %0, ptr %2, align 8, !tbaa !12
  %3 = load i64, ptr %2, align 8, !tbaa !12
  %4 = srem i64 %3, 4
  %5 = icmp eq i64 %4, 0
  br i1 %5, label %6, label %10

6:                                                ; preds = %1
  %7 = load i64, ptr %2, align 8, !tbaa !12
  %8 = srem i64 %7, 100
  %9 = icmp ne i64 %8, 0
  br i1 %9, label %14, label %10

10:                                               ; preds = %6, %1
  %11 = load i64, ptr %2, align 8, !tbaa !12
  %12 = srem i64 %11, 400
  %13 = icmp eq i64 %12, 0
  br label %14

14:                                               ; preds = %10, %6
  %15 = phi i1 [ true, %6 ], [ %13, %10 ]
  %16 = zext i1 %15 to i32
  ret i32 %16
}

; Function Attrs: nounwind sspstrong uwtable
define internal i32 @weeknumber(ptr noundef %0, i32 noundef %1) #0 {
  %3 = alloca ptr, align 8
  %4 = alloca i32, align 4
  %5 = alloca i32, align 4
  %6 = alloca i32, align 4
  store ptr %0, ptr %3, align 8, !tbaa !53
  store i32 %1, ptr %4, align 4, !tbaa !18
  call void @llvm.lifetime.start.p0(i64 4, ptr %5) #17
  %7 = load ptr, ptr %3, align 8, !tbaa !53
  %8 = getelementptr inbounds nuw %struct.tm, ptr %7, i32 0, i32 6
  %9 = load i32, ptr %8, align 8, !tbaa !62
  store i32 %9, ptr %5, align 4, !tbaa !18
  call void @llvm.lifetime.start.p0(i64 4, ptr %6) #17
  %10 = load i32, ptr %4, align 4, !tbaa !18
  %11 = icmp eq i32 %10, 1
  br i1 %11, label %12, label %20

12:                                               ; preds = %2
  %13 = load i32, ptr %5, align 4, !tbaa !18
  %14 = icmp eq i32 %13, 0
  br i1 %14, label %15, label %16

15:                                               ; preds = %12
  store i32 6, ptr %5, align 4, !tbaa !18
  br label %19

16:                                               ; preds = %12
  %17 = load i32, ptr %5, align 4, !tbaa !18
  %18 = add i32 %17, -1
  store i32 %18, ptr %5, align 4, !tbaa !18
  br label %19

19:                                               ; preds = %16, %15
  br label %20

20:                                               ; preds = %19, %2
  %21 = load ptr, ptr %3, align 8, !tbaa !53
  %22 = getelementptr inbounds nuw %struct.tm, ptr %21, i32 0, i32 7
  %23 = load i32, ptr %22, align 4, !tbaa !63
  %24 = add i32 %23, 7
  %25 = load i32, ptr %5, align 4, !tbaa !18
  %26 = sub i32 %24, %25
  %27 = sdiv i32 %26, 7
  store i32 %27, ptr %6, align 4, !tbaa !18
  %28 = load i32, ptr %6, align 4, !tbaa !18
  %29 = icmp slt i32 %28, 0
  br i1 %29, label %30, label %31

30:                                               ; preds = %20
  store i32 0, ptr %6, align 4, !tbaa !18
  br label %31

31:                                               ; preds = %30, %20
  %32 = load i32, ptr %6, align 4, !tbaa !18
  call void @llvm.lifetime.end.p0(i64 4, ptr %6) #17
  call void @llvm.lifetime.end.p0(i64 4, ptr %5) #17
  ret i32 %32
}

; Function Attrs: nounwind sspstrong uwtable
define internal i32 @iso8601wknum(ptr noundef %0) #0 {
  %2 = alloca ptr, align 8
  %3 = alloca i32, align 4
  %4 = alloca i32, align 4
  %5 = alloca %struct.tm, align 8
  %6 = alloca i32, align 4
  %7 = alloca i32, align 4
  store ptr %0, ptr %2, align 8, !tbaa !53
  call void @llvm.lifetime.start.p0(i64 4, ptr %3) #17
  call void @llvm.lifetime.start.p0(i64 4, ptr %4) #17
  %8 = load ptr, ptr %2, align 8, !tbaa !53
  %9 = call i32 @weeknumber(ptr noundef %8, i32 noundef 1)
  store i32 %9, ptr %3, align 4, !tbaa !18
  %10 = load ptr, ptr %2, align 8, !tbaa !53
  %11 = getelementptr inbounds nuw %struct.tm, ptr %10, i32 0, i32 6
  %12 = load i32, ptr %11, align 8, !tbaa !62
  %13 = load ptr, ptr %2, align 8, !tbaa !53
  %14 = getelementptr inbounds nuw %struct.tm, ptr %13, i32 0, i32 7
  %15 = load i32, ptr %14, align 4, !tbaa !63
  %16 = srem i32 %15, 7
  %17 = sub i32 %12, %16
  store i32 %17, ptr %4, align 4, !tbaa !18
  %18 = load i32, ptr %4, align 4, !tbaa !18
  %19 = icmp slt i32 %18, 0
  br i1 %19, label %20, label %23

20:                                               ; preds = %1
  %21 = load i32, ptr %4, align 4, !tbaa !18
  %22 = add i32 %21, 7
  store i32 %22, ptr %4, align 4, !tbaa !18
  br label %23

23:                                               ; preds = %20, %1
  %24 = load i32, ptr %4, align 4, !tbaa !18
  switch i32 %24, label %56 [
    i32 1, label %56
    i32 2, label %25
    i32 3, label %25
    i32 4, label %25
    i32 5, label %28
    i32 6, label %28
    i32 0, label %28
  ]

25:                                               ; preds = %23, %23, %23
  %26 = load i32, ptr %3, align 4, !tbaa !18
  %27 = add i32 %26, 1
  store i32 %27, ptr %3, align 4, !tbaa !18
  br label %56

28:                                               ; preds = %23, %23, %23
  %29 = load i32, ptr %3, align 4, !tbaa !18
  %30 = icmp eq i32 %29, 0
  br i1 %30, label %31, label %55

31:                                               ; preds = %28
  call void @llvm.lifetime.start.p0(i64 56, ptr %5) #17
  %32 = load ptr, ptr %2, align 8, !tbaa !53
  call void @llvm.memcpy.p0.p0.i64(ptr align 8 %5, ptr align 8 %32, i64 56, i1 false), !tbaa.struct !67
  %33 = getelementptr inbounds nuw %struct.tm, ptr %5, i32 0, i32 5
  %34 = load i32, ptr %33, align 4, !tbaa !55
  %35 = add i32 %34, -1
  store i32 %35, ptr %33, align 4, !tbaa !55
  %36 = getelementptr inbounds nuw %struct.tm, ptr %5, i32 0, i32 4
  store i32 11, ptr %36, align 8, !tbaa !57
  %37 = getelementptr inbounds nuw %struct.tm, ptr %5, i32 0, i32 3
  store i32 31, ptr %37, align 4, !tbaa !58
  %38 = load i32, ptr %4, align 4, !tbaa !18
  %39 = icmp eq i32 %38, 0
  br i1 %39, label %40, label %41

40:                                               ; preds = %31
  br label %44

41:                                               ; preds = %31
  %42 = load i32, ptr %4, align 4, !tbaa !18
  %43 = sub i32 %42, 1
  br label %44

44:                                               ; preds = %41, %40
  %45 = phi i32 [ 6, %40 ], [ %43, %41 ]
  %46 = getelementptr inbounds nuw %struct.tm, ptr %5, i32 0, i32 6
  store i32 %45, ptr %46, align 8, !tbaa !62
  %47 = getelementptr inbounds nuw %struct.tm, ptr %5, i32 0, i32 5
  %48 = load i32, ptr %47, align 4, !tbaa !55
  %49 = sext i32 %48 to i64
  %50 = add i64 %49, 1900
  %51 = call i32 @isleap(i64 noundef %50)
  %52 = add i32 364, %51
  %53 = getelementptr inbounds nuw %struct.tm, ptr %5, i32 0, i32 7
  store i32 %52, ptr %53, align 4, !tbaa !63
  %54 = call i32 @iso8601wknum(ptr noundef %5)
  store i32 %54, ptr %3, align 4, !tbaa !18
  call void @llvm.lifetime.end.p0(i64 56, ptr %5) #17
  br label %55

55:                                               ; preds = %44, %28
  br label %56

56:                                               ; preds = %23, %55, %25, %23
  %57 = load ptr, ptr %2, align 8, !tbaa !53
  %58 = getelementptr inbounds nuw %struct.tm, ptr %57, i32 0, i32 4
  %59 = load i32, ptr %58, align 8, !tbaa !57
  %60 = icmp eq i32 %59, 11
  br i1 %60, label %61, label %93

61:                                               ; preds = %56
  call void @llvm.lifetime.start.p0(i64 4, ptr %6) #17
  call void @llvm.lifetime.start.p0(i64 4, ptr %7) #17
  %62 = load ptr, ptr %2, align 8, !tbaa !53
  %63 = getelementptr inbounds nuw %struct.tm, ptr %62, i32 0, i32 6
  %64 = load i32, ptr %63, align 8, !tbaa !62
  store i32 %64, ptr %6, align 4, !tbaa !18
  %65 = load ptr, ptr %2, align 8, !tbaa !53
  %66 = getelementptr inbounds nuw %struct.tm, ptr %65, i32 0, i32 3
  %67 = load i32, ptr %66, align 4, !tbaa !58
  store i32 %67, ptr %7, align 4, !tbaa !18
  %68 = load i32, ptr %6, align 4, !tbaa !18
  %69 = icmp eq i32 %68, 1
  br i1 %69, label %70, label %76

70:                                               ; preds = %61
  %71 = load i32, ptr %7, align 4, !tbaa !18
  %72 = icmp sge i32 %71, 29
  br i1 %72, label %73, label %76

73:                                               ; preds = %70
  %74 = load i32, ptr %7, align 4, !tbaa !18
  %75 = icmp sle i32 %74, 31
  br i1 %75, label %91, label %76

76:                                               ; preds = %73, %70, %61
  %77 = load i32, ptr %6, align 4, !tbaa !18
  %78 = icmp eq i32 %77, 2
  br i1 %78, label %79, label %85

79:                                               ; preds = %76
  %80 = load i32, ptr %7, align 4, !tbaa !18
  %81 = icmp eq i32 %80, 30
  br i1 %81, label %91, label %82

82:                                               ; preds = %79
  %83 = load i32, ptr %7, align 4, !tbaa !18
  %84 = icmp eq i32 %83, 31
  br i1 %84, label %91, label %85

85:                                               ; preds = %82, %76
  %86 = load i32, ptr %6, align 4, !tbaa !18
  %87 = icmp eq i32 %86, 3
  br i1 %87, label %88, label %92

88:                                               ; preds = %85
  %89 = load i32, ptr %7, align 4, !tbaa !18
  %90 = icmp eq i32 %89, 31
  br i1 %90, label %91, label %92

91:                                               ; preds = %88, %82, %79, %73
  store i32 1, ptr %3, align 4, !tbaa !18
  br label %92

92:                                               ; preds = %91, %88, %85
  call void @llvm.lifetime.end.p0(i64 4, ptr %7) #17
  call void @llvm.lifetime.end.p0(i64 4, ptr %6) #17
  br label %93

93:                                               ; preds = %92, %56
  %94 = load i32, ptr %3, align 4, !tbaa !18
  call void @llvm.lifetime.end.p0(i64 4, ptr %4) #17
  call void @llvm.lifetime.end.p0(i64 4, ptr %3) #17
  ret i32 %94
}