; Function Attrs: nofree nosync nounwind sspstrong memory(argmem: readwrite) uwtable
define internal fastcc range(i32 0, 306783380) i32 @iso8601wknum(ptr noundef nonnull readonly captures(none) %0) unnamed_addr #8 {
  %2 = alloca %struct.tm, align 8
  %3 = getelementptr i8, ptr %0, i64 24
  %.val = load i32, ptr %3, align 8, !tbaa !276
  %4 = getelementptr i8, ptr %0, i64 28
  %.val33 = load i32, ptr %4, align 4, !tbaa !278
  %5 = icmp eq i32 %.val, 0
  %.neg = sub i32 1, %.val
  %spec.select.i.neg34 = select i1 %5, i32 -6, i32 %.neg
  %6 = add i32 %.val33, 7
  %7 = add i32 %6, %spec.select.i.neg34
  %8 = sdiv i32 %7, 7
  %spec.store.select.i = tail call range(i32 0, 306783379) i32 @llvm.smax.i32(i32 %8, i32 0)
  %9 = srem i32 %.val33, 7
  %10 = sub i32 %.val, %9
  %11 = icmp slt i32 %10, 0
  %12 = add nsw i32 %10, 7
  %spec.select = select i1 %11, i32 %12, i32 %10
  switch i32 %spec.select, label %40 [
    i32 0, label %15
    i32 2, label %13
    i32 3, label %13
    i32 4, label %13
    i32 5, label %15
    i32 6, label %15
  ]

13:                                               ; preds = %1, %1, %1
  %14 = add nuw nsw i32 %spec.store.select.i, 1
  br label %40

15:                                               ; preds = %1, %1, %1
  %16 = icmp slt i32 %7, 7
  br i1 %16, label %17, label %40

17:                                               ; preds = %15
  call void @llvm.lifetime.start.p0(i64 56, ptr nonnull %2) #12
  call void @llvm.memcpy.p0.p0.i64(ptr noundef nonnull align 8 dereferenceable(56) %2, ptr noundef nonnull align 8 dereferenceable(56) %0, i64 56, i1 false), !tbaa.struct !279
  %18 = getelementptr inbounds nuw i8, ptr %2, i64 20
  %19 = load i32, ptr %18, align 4, !tbaa !280
  %20 = add i32 %19, -1
  store i32 %20, ptr %18, align 4, !tbaa !280
  %21 = getelementptr inbounds nuw i8, ptr %2, i64 16
  store i32 11, ptr %21, align 8, !tbaa !281
  %22 = getelementptr inbounds nuw i8, ptr %2, i64 12
  store i32 31, ptr %22, align 4, !tbaa !282
  %23 = icmp eq i32 %spec.select, 0
  %24 = add nsw i32 %spec.select, -1
  %25 = select i1 %23, i32 6, i32 %24
  %26 = getelementptr inbounds nuw i8, ptr %2, i64 24
  store i32 %25, ptr %26, align 8, !tbaa !276
  %27 = sext i32 %20 to i64
  %28 = add nsw i64 %27, 1900
  %29 = and i32 %20, 3
  %30 = icmp ne i32 %29, 0
  %31 = srem i64 %28, 100
  %.not.i = icmp eq i64 %31, 0
  %or.cond.i = or i1 %30, %.not.i
  br i1 %or.cond.i, label %32, label %isleap.exit

32:                                               ; preds = %17
  %33 = srem i64 %28, 400
  %34 = icmp eq i64 %33, 0
  %35 = zext i1 %34 to i32
  %36 = or disjoint i32 %35, 364
  br label %isleap.exit

isleap.exit:                                      ; preds = %17, %32
  %37 = phi i32 [ %36, %32 ], [ 365, %17 ]
  %38 = getelementptr inbounds nuw i8, ptr %2, i64 28
  store i32 %37, ptr %38, align 4, !tbaa !278
  %39 = call fastcc i32 @iso8601wknum(ptr noundef %2)
  call void @llvm.lifetime.end.p0(i64 56, ptr nonnull %2) #12
  br label %40

40:                                               ; preds = %15, %isleap.exit, %13, %1
  %.0 = phi i32 [ %spec.store.select.i, %1 ], [ %14, %13 ], [ %39, %isleap.exit ], [ %spec.store.select.i, %15 ]
  %41 = getelementptr inbounds nuw i8, ptr %0, i64 16
  %42 = load i32, ptr %41, align 8, !tbaa !281
  %43 = icmp eq i32 %42, 11
  br i1 %43, label %44, label %57

44:                                               ; preds = %40
  %45 = getelementptr inbounds nuw i8, ptr %0, i64 12
  %46 = load i32, ptr %45, align 4, !tbaa !282
  %47 = icmp eq i32 %.val, 1
  %48 = add i32 %46, -29
  %49 = icmp ult i32 %48, 3
  %or.cond3 = select i1 %47, i1 %49, i1 false
  br i1 %or.cond3, label %56, label %50

50:                                               ; preds = %44
  %51 = icmp eq i32 %.val, 2
  %52 = and i32 %46, -2
  %or.cond5 = icmp eq i32 %52, 30
  %or.cond = select i1 %51, i1 %or.cond5, i1 false
  br i1 %or.cond, label %56, label %53

53:                                               ; preds = %50
  %54 = icmp eq i32 %.val, 3
  %55 = icmp eq i32 %46, 31
  %or.cond7 = select i1 %54, i1 %55, i1 false
  br i1 %or.cond7, label %56, label %57

56:                                               ; preds = %50, %53, %44
  br label %57

57:                                               ; preds = %53, %56, %40
  %.1 = phi i32 [ %.0, %40 ], [ 1, %56 ], [ %.0, %53 ]
  ret i32 %.1
}